
blinker.elf:     file format elf64-littleaarch64


Disassembly of section .text:

0000000000080000 <_start>:
   80000:	94000002 	bl	80008 <notmain>

0000000000080004 <hang>:
   80004:	14000000 	b	80004 <hang>

0000000000080008 <notmain>:
   80008:	a9be7bfd 	stp	x29, x30, [sp, #-32]!
   8000c:	52800200 	mov	w0, #0x10                  	// #16
   80010:	910003fd 	mov	x29, sp
   80014:	f9000bf3 	str	x19, [sp, #16]
   80018:	52800293 	mov	w19, #0x14                  	// #20
   8001c:	94000091 	bl	80260 <gpio_set_output>
   80020:	52800021 	mov	w1, #0x1                   	// #1
   80024:	52800200 	mov	w0, #0x10                  	// #16
   80028:	940000a4 	bl	802b8 <gpio_write>
   8002c:	52803e80 	mov	w0, #0x1f4                 	// #500
   80030:	9400003e 	bl	80128 <delay_ms>
   80034:	52800001 	mov	w1, #0x0                   	// #0
   80038:	52800200 	mov	w0, #0x10                  	// #16
   8003c:	9400009f 	bl	802b8 <gpio_write>
   80040:	52803e80 	mov	w0, #0x1f4                 	// #500
   80044:	94000039 	bl	80128 <delay_ms>
   80048:	71000673 	subs	w19, w19, #0x1
   8004c:	54fffea1 	b.ne	80020 <notmain+0x18>  // b.any
   80050:	94000006 	bl	80068 <reboot>
   80054:	f9400bf3 	ldr	x19, [sp, #16]
   80058:	52800000 	mov	w0, #0x0                   	// #0
   8005c:	a8c27bfd 	ldp	x29, x30, [sp], #32
   80060:	d65f03c0 	ret
   80064:	00000000 	.inst	0x00000000 ; undefined

0000000000080068 <reboot>:
   80068:	a9be7bfd 	stp	x29, x30, [sp, #-32]!
   8006c:	910003fd 	mov	x29, sp
   80070:	f9000bf3 	str	x19, [sp, #16]
   80074:	5290d413 	mov	w19, #0x86a0                	// #34464
   80078:	72a00033 	movk	w19, #0x1, lsl #16
   8007c:	d503201f 	nop
   80080:	94000037 	bl	8015c <DUMMY>
   80084:	71000673 	subs	w19, w19, #0x1
   80088:	54ffffc1 	b.ne	80080 <reboot+0x18>  // b.any
   8008c:	52800021 	mov	w1, #0x1                   	// #1
   80090:	52800480 	mov	w0, #0x24                  	// #36
   80094:	72ab4001 	movk	w1, #0x5a00, lsl #16
   80098:	72a7e200 	movk	w0, #0x3f10, lsl #16
   8009c:	94000026 	bl	80134 <PUT32>
   800a0:	52800401 	mov	w1, #0x20                  	// #32
   800a4:	52800380 	mov	w0, #0x1c                  	// #28
   800a8:	72ab4001 	movk	w1, #0x5a00, lsl #16
   800ac:	72a7e200 	movk	w0, #0x3f10, lsl #16
   800b0:	94000021 	bl	80134 <PUT32>
   800b4:	14000000 	b	800b4 <reboot+0x4c>

00000000000800b8 <delay>:
   800b8:	1400002a 	b	80160 <CYCLE_DELAY>
   800bc:	d503201f 	nop

00000000000800c0 <timer_get_time>:
   800c0:	52860080 	mov	w0, #0x3004                	// #12292
   800c4:	72a7e000 	movk	w0, #0x3f00, lsl #16
   800c8:	1400001f 	b	80144 <GET32>
   800cc:	d503201f 	nop

00000000000800d0 <delay_us>:
   800d0:	a9bd7bfd 	stp	x29, x30, [sp, #-48]!
   800d4:	910003fd 	mov	x29, sp
   800d8:	f90013f5 	str	x21, [sp, #32]
   800dc:	2a0003f5 	mov	w21, w0
   800e0:	52860080 	mov	w0, #0x3004                	// #12292
   800e4:	a90153f3 	stp	x19, x20, [sp, #16]
   800e8:	72a7e000 	movk	w0, #0x3f00, lsl #16
   800ec:	52860093 	mov	w19, #0x3004                	// #12292
   800f0:	94000015 	bl	80144 <GET32>
   800f4:	2a0003f4 	mov	w20, w0
   800f8:	72a7e013 	movk	w19, #0x3f00, lsl #16
   800fc:	d503201f 	nop
   80100:	2a1303e0 	mov	w0, w19
   80104:	94000010 	bl	80144 <GET32>
   80108:	4b140000 	sub	w0, w0, w20
   8010c:	6b15001f 	cmp	w0, w21
   80110:	54ffff83 	b.cc	80100 <delay_us+0x30>  // b.lo, b.ul, b.last
   80114:	a94153f3 	ldp	x19, x20, [sp, #16]
   80118:	f94013f5 	ldr	x21, [sp, #32]
   8011c:	a8c37bfd 	ldp	x29, x30, [sp], #48
   80120:	d65f03c0 	ret
   80124:	d503201f 	nop

0000000000080128 <delay_ms>:
   80128:	52807d01 	mov	w1, #0x3e8                 	// #1000
   8012c:	1b017c00 	mul	w0, w0, w1
   80130:	17ffffe8 	b	800d0 <delay_us>

0000000000080134 <PUT32>:
   80134:	b9000001 	str	w1, [x0]
   80138:	d65f03c0 	ret

000000000008013c <PUT8>:
   8013c:	39000001 	strb	w1, [x0]
   80140:	d65f03c0 	ret

0000000000080144 <GET32>:
   80144:	b9400000 	ldr	w0, [x0]
   80148:	d65f03c0 	ret

000000000008014c <GETPC>:
   8014c:	aa1e03e0 	mov	x0, x30
   80150:	d65f03c0 	ret

0000000000080154 <BRANCHTO>:
   80154:	2a0003fe 	mov	w30, w0
   80158:	d65f03c0 	ret

000000000008015c <DUMMY>:
   8015c:	d65f03c0 	ret

0000000000080160 <CYCLE_DELAY>:
   80160:	f1000400 	subs	x0, x0, #0x1
   80164:	54ffffe1 	b.ne	80160 <CYCLE_DELAY>  // b.any
   80168:	d65f03c0 	ret
   8016c:	00000000 	.inst	0x00000000 ; undefined

0000000000080170 <gpio_init>:
   80170:	52800020 	mov	w0, #0x1                   	// #1
   80174:	d65f03c0 	ret

0000000000080178 <put_in_register>:
   80178:	a9bd7bfd 	stp	x29, x30, [sp, #-48]!
   8017c:	910003fd 	mov	x29, sp
   80180:	a90153f3 	stp	x19, x20, [sp, #16]
   80184:	2a0103f4 	mov	w20, w1
   80188:	f90013f5 	str	x21, [sp, #32]
   8018c:	2a0203f5 	mov	w21, w2
   80190:	d3437693 	ubfx	x19, x20, #3, #27
   80194:	12001034 	and	w20, w1, #0x1f
   80198:	0b000273 	add	w19, w19, w0
   8019c:	1ad422b4 	lsl	w20, w21, w20
   801a0:	2a1303e0 	mov	w0, w19
   801a4:	97ffffe8 	bl	80144 <GET32>
   801a8:	f94013f5 	ldr	x21, [sp, #32]
   801ac:	2a000281 	orr	w1, w20, w0
   801b0:	2a1303e0 	mov	w0, w19
   801b4:	a94153f3 	ldp	x19, x20, [sp, #16]
   801b8:	a8c37bfd 	ldp	x29, x30, [sp], #48
   801bc:	17ffffde 	b	80134 <PUT32>

00000000000801c0 <gpio_set_function>:
   801c0:	7100d41f 	cmp	w0, #0x35
   801c4:	7a479822 	ccmp	w1, #0x7, #0x2, ls  // ls = plast
   801c8:	54000428 	b.hi	8024c <gpio_set_function+0x8c>  // b.pmore
   801cc:	a9bd7bfd 	stp	x29, x30, [sp, #-48]!
   801d0:	910003fd 	mov	x29, sp
   801d4:	a90153f3 	stp	x19, x20, [sp, #16]
   801d8:	531e7414 	lsl	w20, w0, #2
   801dc:	a9025bf5 	stp	x21, x22, [sp, #32]
   801e0:	529999b3 	mov	w19, #0xcccd                	// #52429
   801e4:	2a0003f6 	mov	w22, w0
   801e8:	72b99993 	movk	w19, #0xcccc, lsl #16
   801ec:	52a7e400 	mov	w0, #0x3f200000            	// #1059061760
   801f0:	2a0103f5 	mov	w21, w1
   801f4:	9bb37e94 	umull	x20, w20, w19
   801f8:	9bb37ed3 	umull	x19, w22, w19
   801fc:	d363fe94 	lsr	x20, x20, #35
   80200:	d363fe73 	lsr	x19, x19, #35
   80204:	0b000294 	add	w20, w20, w0
   80208:	2a1403e0 	mov	w0, w20
   8020c:	97ffffce 	bl	80144 <GET32>
   80210:	0b130a73 	add	w19, w19, w19, lsl #2
   80214:	528000e3 	mov	w3, #0x7                   	// #7
   80218:	4b1306c2 	sub	w2, w22, w19, lsl #1
   8021c:	0b020442 	add	w2, w2, w2, lsl #1
   80220:	1ac22063 	lsl	w3, w3, w2
   80224:	0a230003 	bic	w3, w0, w3
   80228:	1ac222a1 	lsl	w1, w21, w2
   8022c:	2a1403e0 	mov	w0, w20
   80230:	2a030021 	orr	w1, w1, w3
   80234:	97ffffc0 	bl	80134 <PUT32>
   80238:	52800020 	mov	w0, #0x1                   	// #1
   8023c:	a94153f3 	ldp	x19, x20, [sp, #16]
   80240:	a9425bf5 	ldp	x21, x22, [sp, #32]
   80244:	a8c37bfd 	ldp	x29, x30, [sp], #48
   80248:	d65f03c0 	ret
   8024c:	12800000 	mov	w0, #0xffffffff            	// #-1
   80250:	d65f03c0 	ret
   80254:	d503201f 	nop

0000000000080258 <gpio_set_input>:
   80258:	52800001 	mov	w1, #0x0                   	// #0
   8025c:	17ffffd9 	b	801c0 <gpio_set_function>

0000000000080260 <gpio_set_output>:
   80260:	52800021 	mov	w1, #0x1                   	// #1
   80264:	17ffffd7 	b	801c0 <gpio_set_function>

0000000000080268 <gpio_read>:
   80268:	7100d41f 	cmp	w0, #0x35
   8026c:	54000208 	b.hi	802ac <gpio_read+0x44>  // b.pmore
   80270:	a9be7bfd 	stp	x29, x30, [sp, #-32]!
   80274:	910003fd 	mov	x29, sp
   80278:	f9000bf3 	str	x19, [sp, #16]
   8027c:	2a0003f3 	mov	w19, w0
   80280:	52800680 	mov	w0, #0x34                  	// #52
   80284:	d3437661 	ubfx	x1, x19, #3, #27
   80288:	12001273 	and	w19, w19, #0x1f
   8028c:	72a7e400 	movk	w0, #0x3f20, lsl #16
   80290:	0b000020 	add	w0, w1, w0
   80294:	97ffffac 	bl	80144 <GET32>
   80298:	1ad32400 	lsr	w0, w0, w19
   8029c:	f9400bf3 	ldr	x19, [sp, #16]
   802a0:	12000000 	and	w0, w0, #0x1
   802a4:	a8c27bfd 	ldp	x29, x30, [sp], #32
   802a8:	d65f03c0 	ret
   802ac:	12800000 	mov	w0, #0xffffffff            	// #-1
   802b0:	d65f03c0 	ret
   802b4:	d503201f 	nop

00000000000802b8 <gpio_write>:
   802b8:	7100d41f 	cmp	w0, #0x35
   802bc:	54000608 	b.hi	8037c <gpio_write+0xc4>  // b.pmore
   802c0:	a9bd7bfd 	stp	x29, x30, [sp, #-48]!
   802c4:	910003fd 	mov	x29, sp
   802c8:	a90157f4 	stp	x20, x21, [sp, #16]
   802cc:	2a0003f5 	mov	w21, w0
   802d0:	529999b4 	mov	w20, #0xcccd                	// #52429
   802d4:	531e7400 	lsl	w0, w0, #2
   802d8:	72b99994 	movk	w20, #0xcccc, lsl #16
   802dc:	f90013f6 	str	x22, [sp, #32]
   802e0:	2a0103f6 	mov	w22, w1
   802e4:	52a7e401 	mov	w1, #0x3f200000            	// #1059061760
   802e8:	9bb47c00 	umull	x0, w0, w20
   802ec:	9bb47eb4 	umull	x20, w21, w20
   802f0:	d363fc00 	lsr	x0, x0, #35
   802f4:	d363fe94 	lsr	x20, x20, #35
   802f8:	0b010000 	add	w0, w0, w1
   802fc:	97ffff92 	bl	80144 <GET32>
   80300:	0b140a94 	add	w20, w20, w20, lsl #2
   80304:	4b1406b4 	sub	w20, w21, w20, lsl #1
   80308:	0b140694 	add	w20, w20, w20, lsl #1
   8030c:	1ad42414 	lsr	w20, w0, w20
   80310:	12000a94 	and	w20, w20, #0x7
   80314:	7100069f 	cmp	w20, #0x1
   80318:	540002e1 	b.ne	80374 <gpio_write+0xbc>  // b.any
   8031c:	710006df 	cmp	w22, #0x1
   80320:	54000160 	b.eq	8034c <gpio_write+0x94>  // b.none
   80324:	52800500 	mov	w0, #0x28                  	// #40
   80328:	2a1403e2 	mov	w2, w20
   8032c:	72a7e400 	movk	w0, #0x3f20, lsl #16
   80330:	2a1503e1 	mov	w1, w21
   80334:	97ffff91 	bl	80178 <put_in_register>
   80338:	2a1403e0 	mov	w0, w20
   8033c:	a94157f4 	ldp	x20, x21, [sp, #16]
   80340:	f94013f6 	ldr	x22, [sp, #32]
   80344:	a8c37bfd 	ldp	x29, x30, [sp], #48
   80348:	d65f03c0 	ret
   8034c:	52800380 	mov	w0, #0x1c                  	// #28
   80350:	2a1603e2 	mov	w2, w22
   80354:	2a1503e1 	mov	w1, w21
   80358:	72a7e400 	movk	w0, #0x3f20, lsl #16
   8035c:	97ffff87 	bl	80178 <put_in_register>
   80360:	2a1603e0 	mov	w0, w22
   80364:	f94013f6 	ldr	x22, [sp, #32]
   80368:	a94157f4 	ldp	x20, x21, [sp, #16]
   8036c:	a8c37bfd 	ldp	x29, x30, [sp], #48
   80370:	d65f03c0 	ret
   80374:	12800000 	mov	w0, #0xffffffff            	// #-1
   80378:	17fffff1 	b	8033c <gpio_write+0x84>
   8037c:	12800000 	mov	w0, #0xffffffff            	// #-1
   80380:	d65f03c0 	ret
   80384:	d503201f 	nop

0000000000080388 <gpio_set_on>:
   80388:	a9bf7bfd 	stp	x29, x30, [sp, #-16]!
   8038c:	2a0003e1 	mov	w1, w0
   80390:	52800380 	mov	w0, #0x1c                  	// #28
   80394:	52800022 	mov	w2, #0x1                   	// #1
   80398:	910003fd 	mov	x29, sp
   8039c:	72a7e400 	movk	w0, #0x3f20, lsl #16
   803a0:	97ffff76 	bl	80178 <put_in_register>
   803a4:	52800020 	mov	w0, #0x1                   	// #1
   803a8:	a8c17bfd 	ldp	x29, x30, [sp], #16
   803ac:	d65f03c0 	ret

00000000000803b0 <gpio_set_off>:
   803b0:	a9bf7bfd 	stp	x29, x30, [sp, #-16]!
   803b4:	2a0003e1 	mov	w1, w0
   803b8:	52800500 	mov	w0, #0x28                  	// #40
   803bc:	52800022 	mov	w2, #0x1                   	// #1
   803c0:	910003fd 	mov	x29, sp
   803c4:	72a7e400 	movk	w0, #0x3f20, lsl #16
   803c8:	97ffff6c 	bl	80178 <put_in_register>
   803cc:	52800020 	mov	w0, #0x1                   	// #1
   803d0:	a8c17bfd 	ldp	x29, x30, [sp], #16
   803d4:	d65f03c0 	ret

00000000000803d8 <gpio_set_pullupdownoff>:
   803d8:	7100d41f 	cmp	w0, #0x35
   803dc:	54000408 	b.hi	8045c <gpio_set_pullupdownoff+0x84>  // b.pmore
   803e0:	a9be7bfd 	stp	x29, x30, [sp, #-32]!
   803e4:	910003fd 	mov	x29, sp
   803e8:	a90153f3 	stp	x19, x20, [sp, #16]
   803ec:	2a0003f3 	mov	w19, w0
   803f0:	52801280 	mov	w0, #0x94                  	// #148
   803f4:	52800034 	mov	w20, #0x1                   	// #1
   803f8:	72a7e400 	movk	w0, #0x3f20, lsl #16
   803fc:	97ffff4e 	bl	80134 <PUT32>
   80400:	528015e0 	mov	w0, #0xaf                  	// #175
   80404:	97ffff57 	bl	80160 <CYCLE_DELAY>
   80408:	12001261 	and	w1, w19, #0x1f
   8040c:	52801300 	mov	w0, #0x98                  	// #152
   80410:	d3437673 	ubfx	x19, x19, #3, #27
   80414:	72a7e400 	movk	w0, #0x3f20, lsl #16
   80418:	1ac12281 	lsl	w1, w20, w1
   8041c:	0b000273 	add	w19, w19, w0
   80420:	2a1303e0 	mov	w0, w19
   80424:	97ffff44 	bl	80134 <PUT32>
   80428:	528015e0 	mov	w0, #0xaf                  	// #175
   8042c:	97ffff4d 	bl	80160 <CYCLE_DELAY>
   80430:	52801280 	mov	w0, #0x94                  	// #148
   80434:	52800001 	mov	w1, #0x0                   	// #0
   80438:	72a7e400 	movk	w0, #0x3f20, lsl #16
   8043c:	97ffff3e 	bl	80134 <PUT32>
   80440:	2a1303e0 	mov	w0, w19
   80444:	52800001 	mov	w1, #0x0                   	// #0
   80448:	97ffff3b 	bl	80134 <PUT32>
   8044c:	2a1403e0 	mov	w0, w20
   80450:	a94153f3 	ldp	x19, x20, [sp, #16]
   80454:	a8c27bfd 	ldp	x29, x30, [sp], #32
   80458:	d65f03c0 	ret
   8045c:	12800000 	mov	w0, #0xffffffff            	// #-1
   80460:	d65f03c0 	ret
   80464:	d503201f 	nop

0000000000080468 <gpio_set_pullup>:
   80468:	52800041 	mov	w1, #0x2                   	// #2
   8046c:	17ffffdb 	b	803d8 <gpio_set_pullupdownoff>

0000000000080470 <gpio_set_pulldown>:
   80470:	52800021 	mov	w1, #0x1                   	// #1
   80474:	17ffffd9 	b	803d8 <gpio_set_pullupdownoff>

0000000000080478 <gpio_pud_off>:
   80478:	52800001 	mov	w1, #0x0                   	// #0
   8047c:	17ffffd7 	b	803d8 <gpio_set_pullupdownoff>

0000000000080480 <gpio_event_rising_edge_sync>:
   80480:	7100d41f 	cmp	w0, #0x35
   80484:	54000168 	b.hi	804b0 <gpio_event_rising_edge_sync+0x30>  // b.pmore
   80488:	a9bf7bfd 	stp	x29, x30, [sp, #-16]!
   8048c:	2a0103e2 	mov	w2, w1
   80490:	2a0003e1 	mov	w1, w0
   80494:	52800980 	mov	w0, #0x4c                  	// #76
   80498:	910003fd 	mov	x29, sp
   8049c:	72a7e400 	movk	w0, #0x3f20, lsl #16
   804a0:	97ffff36 	bl	80178 <put_in_register>
   804a4:	52800020 	mov	w0, #0x1                   	// #1
   804a8:	a8c17bfd 	ldp	x29, x30, [sp], #16
   804ac:	d65f03c0 	ret
   804b0:	12800000 	mov	w0, #0xffffffff            	// #-1
   804b4:	d65f03c0 	ret

00000000000804b8 <gpio_event_falling_edge_sync>:
   804b8:	7100d41f 	cmp	w0, #0x35
   804bc:	54000168 	b.hi	804e8 <gpio_event_falling_edge_sync+0x30>  // b.pmore
   804c0:	a9bf7bfd 	stp	x29, x30, [sp, #-16]!
   804c4:	2a0103e2 	mov	w2, w1
   804c8:	2a0003e1 	mov	w1, w0
   804cc:	52800b00 	mov	w0, #0x58                  	// #88
   804d0:	910003fd 	mov	x29, sp
   804d4:	72a7e400 	movk	w0, #0x3f20, lsl #16
   804d8:	97ffff28 	bl	80178 <put_in_register>
   804dc:	52800020 	mov	w0, #0x1                   	// #1
   804e0:	a8c17bfd 	ldp	x29, x30, [sp], #16
   804e4:	d65f03c0 	ret
   804e8:	12800000 	mov	w0, #0xffffffff            	// #-1
   804ec:	d65f03c0 	ret

00000000000804f0 <gpio_event_rising_edge_async>:
   804f0:	7100d41f 	cmp	w0, #0x35
   804f4:	54000168 	b.hi	80520 <gpio_event_rising_edge_async+0x30>  // b.pmore
   804f8:	a9bf7bfd 	stp	x29, x30, [sp, #-16]!
   804fc:	2a0103e2 	mov	w2, w1
   80500:	2a0003e1 	mov	w1, w0
   80504:	52800f80 	mov	w0, #0x7c                  	// #124
   80508:	910003fd 	mov	x29, sp
   8050c:	72a7e400 	movk	w0, #0x3f20, lsl #16
   80510:	97ffff1a 	bl	80178 <put_in_register>
   80514:	52800020 	mov	w0, #0x1                   	// #1
   80518:	a8c17bfd 	ldp	x29, x30, [sp], #16
   8051c:	d65f03c0 	ret
   80520:	12800000 	mov	w0, #0xffffffff            	// #-1
   80524:	d65f03c0 	ret

0000000000080528 <gpio_event_falling_edge_async>:
   80528:	7100d41f 	cmp	w0, #0x35
   8052c:	54000168 	b.hi	80558 <gpio_event_falling_edge_async+0x30>  // b.pmore
   80530:	a9bf7bfd 	stp	x29, x30, [sp, #-16]!
   80534:	2a0103e2 	mov	w2, w1
   80538:	2a0003e1 	mov	w1, w0
   8053c:	52801100 	mov	w0, #0x88                  	// #136
   80540:	910003fd 	mov	x29, sp
   80544:	72a7e400 	movk	w0, #0x3f20, lsl #16
   80548:	97ffff0c 	bl	80178 <put_in_register>
   8054c:	52800020 	mov	w0, #0x1                   	// #1
   80550:	a8c17bfd 	ldp	x29, x30, [sp], #16
   80554:	d65f03c0 	ret
   80558:	12800000 	mov	w0, #0xffffffff            	// #-1
   8055c:	d65f03c0 	ret

0000000000080560 <gpio_event_highlevel>:
   80560:	7100d41f 	cmp	w0, #0x35
   80564:	54000168 	b.hi	80590 <gpio_event_highlevel+0x30>  // b.pmore
   80568:	a9bf7bfd 	stp	x29, x30, [sp, #-16]!
   8056c:	2a0103e2 	mov	w2, w1
   80570:	2a0003e1 	mov	w1, w0
   80574:	52800c80 	mov	w0, #0x64                  	// #100
   80578:	910003fd 	mov	x29, sp
   8057c:	72a7e400 	movk	w0, #0x3f20, lsl #16
   80580:	97fffefe 	bl	80178 <put_in_register>
   80584:	52800020 	mov	w0, #0x1                   	// #1
   80588:	a8c17bfd 	ldp	x29, x30, [sp], #16
   8058c:	d65f03c0 	ret
   80590:	12800000 	mov	w0, #0xffffffff            	// #-1
   80594:	d65f03c0 	ret

0000000000080598 <gpio_event_lowlevel>:
   80598:	17ffffba 	b	80480 <gpio_event_rising_edge_sync>
   8059c:	d503201f 	nop

00000000000805a0 <gpio_event_detected>:
   805a0:	7100d41f 	cmp	w0, #0x35
   805a4:	54000208 	b.hi	805e4 <gpio_event_detected+0x44>  // b.pmore
   805a8:	a9be7bfd 	stp	x29, x30, [sp, #-32]!
   805ac:	910003fd 	mov	x29, sp
   805b0:	f9000bf3 	str	x19, [sp, #16]
   805b4:	2a0003f3 	mov	w19, w0
   805b8:	52800800 	mov	w0, #0x40                  	// #64
   805bc:	d3437661 	ubfx	x1, x19, #3, #27
   805c0:	12001273 	and	w19, w19, #0x1f
   805c4:	72a7e400 	movk	w0, #0x3f20, lsl #16
   805c8:	0b000020 	add	w0, w1, w0
   805cc:	97fffede 	bl	80144 <GET32>
   805d0:	1ad32400 	lsr	w0, w0, w19
   805d4:	f9400bf3 	ldr	x19, [sp, #16]
   805d8:	12000000 	and	w0, w0, #0x1
   805dc:	a8c27bfd 	ldp	x29, x30, [sp], #32
   805e0:	d65f03c0 	ret
   805e4:	12800000 	mov	w0, #0xffffffff            	// #-1
   805e8:	d65f03c0 	ret
   805ec:	d503201f 	nop

00000000000805f0 <gpio_event_clear>:
   805f0:	7100d41f 	cmp	w0, #0x35
   805f4:	54000168 	b.hi	80620 <gpio_event_clear+0x30>  // b.pmore
   805f8:	a9bf7bfd 	stp	x29, x30, [sp, #-16]!
   805fc:	2a0003e1 	mov	w1, w0
   80600:	52800800 	mov	w0, #0x40                  	// #64
   80604:	52800022 	mov	w2, #0x1                   	// #1
   80608:	910003fd 	mov	x29, sp
   8060c:	72a7e400 	movk	w0, #0x3f20, lsl #16
   80610:	97fffeda 	bl	80178 <put_in_register>
   80614:	52800020 	mov	w0, #0x1                   	// #1
   80618:	a8c17bfd 	ldp	x29, x30, [sp], #16
   8061c:	d65f03c0 	ret
   80620:	12800000 	mov	w0, #0xffffffff            	// #-1
   80624:	d65f03c0 	ret

Disassembly of section .comment:

0000000000000000 <.comment>:
   0:	3a434347 	ccmn	w26, w3, #0x7, mi  // mi = first
   4:	694c2820 	ldpsw	x0, x10, [x1, #96]
   8:	6f72616e 	umlsl2	v14.4s, v11.8h, v2.h[3]
   c:	43434720 	.inst	0x43434720 ; undefined
  10:	322e3720 	orr	w0, w25, #0xfffc0000
  14:	3130322d 	adds	w13, w17, #0xc0c
  18:	31312e37 	adds	w23, w17, #0xc4b
  1c:	2e372029 	usubl	v9.8h, v1.8b, v23.8b
  20:	20312e32 	.inst	0x20312e32 ; undefined
  24:	37313032 	tbnz	w18, #6, 2628 <_start-0x7d9d8>
  28:	31313031 	adds	w17, w1, #0xc4c
	...
